target datalayout = "e-m:e-p270:32:32-p271:32:32-p272:64:64-i64:64-i128:128-f80:128-n8:16:32:64-S128"
target triple = "x86_64-pc-linux-gnu"

%struct.FunctionCallInfoBaseData = type { ptr, ptr, ptr, i32, i8, i16, [0 x %struct.NullableDatum] }
%struct.NullableDatum = type { i64, i8 }

@.str.3 = private unnamed_addr constant [7 x i8] c"date.c\00", align 1
@.str.14 = private unnamed_addr constant [32 x i8] c"date out of range for timestamp\00", align 1
@__func__.date2timestamp_opt_overflow = private unnamed_addr constant [28 x i8] c"date2timestamp_opt_overflow\00", align 1

; Function Attrs: nounwind uwtable
define dso_local i64 @date2timestamp_opt_overflow(i32 noundef %0, ptr noundef %1) #0 {
  %3 = alloca i64, align 8
  %4 = alloca i32, align 4
  %5 = alloca ptr, align 8
  %6 = alloca i64, align 8
  %7 = alloca i32, align 4
  store i32 %0, ptr %4, align 4
  store ptr %1, ptr %5, align 8
  call void @llvm.lifetime.start.p0(i64 8, ptr %6) #9
  %8 = load ptr, ptr %5, align 8
  %9 = icmp ne ptr %8, null
  br i1 %9, label %10, label %12

10:                                               ; preds = %2
  %11 = load ptr, ptr %5, align 8
  store i32 0, ptr %11, align 4
  br label %12

12:                                               ; preds = %10, %2
  %13 = load i32, ptr %4, align 4
  %14 = icmp eq i32 %13, -2147483648
  br i1 %14, label %15, label %19

15:                                               ; preds = %12
  br label %16

16:                                               ; preds = %15
  store i64 -9223372036854775808, ptr %6, align 8
  br label %17

17:                                               ; preds = %16
  br label %18

18:                                               ; preds = %17
  br label %56

19:                                               ; preds = %12
  %20 = load i32, ptr %4, align 4
  %21 = icmp eq i32 %20, 2147483647
  br i1 %21, label %22, label %26

22:                                               ; preds = %19
  br label %23

23:                                               ; preds = %22
  store i64 9223372036854775807, ptr %6, align 8
  br label %24

24:                                               ; preds = %23
  br label %25

25:                                               ; preds = %24
  br label %55

26:                                               ; preds = %19
  %27 = load i32, ptr %4, align 4
  %28 = icmp sge i32 %27, 106751983
  br i1 %28, label %29, label %51

29:                                               ; preds = %26
  %30 = load ptr, ptr %5, align 8
  %31 = icmp ne ptr %30, null
  br i1 %31, label %32, label %38

32:                                               ; preds = %29
  %33 = load ptr, ptr %5, align 8
  store i32 1, ptr %33, align 4
  br label %34

34:                                               ; preds = %32
  store i64 9223372036854775807, ptr %6, align 8
  br label %35

35:                                               ; preds = %34
  br label %36

36:                                               ; preds = %35
  %37 = load i64, ptr %6, align 8
  store i64 %37, ptr %3, align 8
  store i32 1, ptr %7, align 4
  br label %58

38:                                               ; preds = %29
  br label %39

39:                                               ; preds = %38
  br i1 true, label %40, label %42

40:                                               ; preds = %39
  %41 = call zeroext i1 @errstart_cold(i32 noundef 21, ptr noundef null) #8
  br i1 %41, label %44, label %47

42:                                               ; preds = %39
  %43 = call zeroext i1 @errstart(i32 noundef 21, ptr noundef null)
  br i1 %43, label %44, label %47

44:                                               ; preds = %42, %40
  %45 = call i32 @errcode(i32 noundef 134217858)
  %46 = call i32 (ptr, ...) @errmsg(ptr noundef @.str.14)
  call void @errfinish(ptr noundef @.str.3, i32 noundef 612, ptr noundef @__func__.date2timestamp_opt_overflow)
  br label %47

47:                                               ; preds = %44, %42, %40
  unreachable

48:                                               ; No predecessors!
  br label %49

49:                                               ; preds = %48
  br label %50

50:                                               ; preds = %49
  br label %51

51:                                               ; preds = %50, %26
  %52 = load i32, ptr %4, align 4
  %53 = sext i32 %52 to i64
  %54 = mul i64 %53, 86400000000
  store i64 %54, ptr %6, align 8
  br label %55

55:                                               ; preds = %51, %25
  br label %56

56:                                               ; preds = %55, %18
  %57 = load i64, ptr %6, align 8
  store i64 %57, ptr %3, align 8
  store i32 1, ptr %7, align 4
  br label %58

58:                                               ; preds = %56, %36
  call void @llvm.lifetime.end.p0(i64 8, ptr %6) #9
  %59 = load i64, ptr %3, align 8
  ret i64 %59
}

; Function Attrs: inlinehint nounwind uwtable
define internal i32 @DatumGetInt32(i64 noundef %0) #4 {
  %2 = alloca i64, align 8
  store i64 %0, ptr %2, align 8
  %3 = load i64, ptr %2, align 8
  %4 = trunc i64 %3 to i32
  ret i32 %4
}

; Function Attrs: inlinehint nounwind uwtable
define internal i64 @DatumGetInt64(i64 noundef %0) #4 {
  %2 = alloca i64, align 8
  store i64 %0, ptr %2, align 8
  %3 = load i64, ptr %2, align 8
  ret i64 %3
}

; Function Attrs: inlinehint nounwind uwtable
define internal i64 @Int32GetDatum(i32 noundef %0) #4 {
  %2 = alloca i32, align 4
  store i32 %0, ptr %2, align 4
  %3 = load i32, ptr %2, align 4
  %4 = sext i32 %3 to i64
  ret i64 %4
}

; Function Attrs: nounwind uwtable
define dso_local i32 @date_cmp_timestamp_internal(i32 noundef %0, i64 noundef %1) #0 {
  %3 = alloca i32, align 4
  %4 = alloca i32, align 4
  %5 = alloca i64, align 8
  %6 = alloca i64, align 8
  %7 = alloca i32, align 4
  %8 = alloca i32, align 4
  store i32 %0, ptr %4, align 4
  store i64 %1, ptr %5, align 8
  call void @llvm.lifetime.start.p0(i64 8, ptr %6) #9
  call void @llvm.lifetime.start.p0(i64 4, ptr %7) #9
  %9 = load i32, ptr %4, align 4
  %10 = call i64 @date2timestamp_opt_overflow(i32 noundef %9, ptr noundef %7)
  store i64 %10, ptr %6, align 8
  %11 = load i32, ptr %7, align 4
  %12 = icmp sgt i32 %11, 0
  br i1 %12, label %13, label %17

13:                                               ; preds = %2
  %14 = load i64, ptr %5, align 8
  %15 = icmp eq i64 %14, 9223372036854775807
  %16 = select i1 %15, i32 -1, i32 1
  store i32 %16, ptr %3, align 4
  store i32 1, ptr %8, align 4
  br label %21

17:                                               ; preds = %2
  %18 = load i64, ptr %6, align 8
  %19 = load i64, ptr %5, align 8
  %20 = call i32 @timestamp_cmp_internal(i64 noundef %18, i64 noundef %19)
  store i32 %20, ptr %3, align 4
  store i32 1, ptr %8, align 4
  br label %21

21:                                               ; preds = %17, %13
  call void @llvm.lifetime.end.p0(i64 4, ptr %7) #9
  call void @llvm.lifetime.end.p0(i64 8, ptr %6) #9
  %22 = load i32, ptr %3, align 4
  ret i32 %22
}

; Function Attrs: inlinehint nounwind uwtable
define internal i32 @DatumGetDateADT(i64 noundef %0) #4 {
  %2 = alloca i64, align 8
  store i64 %0, ptr %2, align 8
  %3 = load i64, ptr %2, align 8
  %4 = call i32 @DatumGetInt32(i64 noundef %3)
  ret i32 %4
}

; Function Attrs: inlinehint nounwind uwtable
define internal i64 @DatumGetTimestamp(i64 noundef %0) #4 {
  %2 = alloca i64, align 8
  store i64 %0, ptr %2, align 8
  %3 = load i64, ptr %2, align 8
  %4 = call i64 @DatumGetInt64(i64 noundef %3)
  ret i64 %4
}

; Function Attrs: nounwind uwtable
define dso_local i64 @timestamp_cmp_date(ptr noundef %0) #0 {
  %2 = alloca ptr, align 8
  %3 = alloca i64, align 8
  %4 = alloca i32, align 4
  store ptr %0, ptr %2, align 8
  call void @llvm.lifetime.start.p0(i64 8, ptr %3) #9
  %5 = load ptr, ptr %2, align 8
  %6 = getelementptr inbounds nuw %struct.FunctionCallInfoBaseData, ptr %5, i32 0, i32 6
  %7 = getelementptr inbounds [0 x %struct.NullableDatum], ptr %6, i64 0, i64 0
  %8 = getelementptr inbounds nuw %struct.NullableDatum, ptr %7, i32 0, i32 0
  %9 = load i64, ptr %8, align 8
  %10 = call i64 @DatumGetTimestamp(i64 noundef %9)
  store i64 %10, ptr %3, align 8
  call void @llvm.lifetime.start.p0(i64 4, ptr %4) #9
  %11 = load ptr, ptr %2, align 8
  %12 = getelementptr inbounds nuw %struct.FunctionCallInfoBaseData, ptr %11, i32 0, i32 6
  %13 = getelementptr inbounds [0 x %struct.NullableDatum], ptr %12, i64 0, i64 1
  %14 = getelementptr inbounds nuw %struct.NullableDatum, ptr %13, i32 0, i32 0
  %15 = load i64, ptr %14, align 8
  %16 = call i32 @DatumGetDateADT(i64 noundef %15)
  store i32 %16, ptr %4, align 4
  %17 = load i32, ptr %4, align 4
  %18 = load i64, ptr %3, align 8
  %19 = call i32 @date_cmp_timestamp_internal(i32 noundef %17, i64 noundef %18)
  %20 = sub i32 0, %19
  %21 = call i64 @Int32GetDatum(i32 noundef %20)
  call void @llvm.lifetime.end.p0(i64 4, ptr %4) #9
  call void @llvm.lifetime.end.p0(i64 8, ptr %3) #9
  ret i64 %21
}