; Function Attrs: nounwind uwtable
define dso_local range(i64 -2147483648, 2147483648) i64 @timestamp_cmp_date(ptr noundef readonly captures(none) %0) local_unnamed_addr #0 {
  %2 = getelementptr inbounds nuw i8, ptr %0, i64 32
  %3 = load i64, ptr %2, align 8
  %4 = getelementptr inbounds nuw i8, ptr %0, i64 48
  %5 = load i64, ptr %4, align 8
  %6 = trunc i64 %5 to i32
  switch i32 %6, label %8 [
    i32 -2147483648, label %15
    i32 2147483647, label %7
  ]

7:                                                ; preds = %1
  br label %15

8:                                                ; preds = %1
  %9 = icmp sgt i32 %6, 106751982
  br i1 %9, label %date2timestamp_opt_overflow.exit.i, label %10

10:                                               ; preds = %8
  %sext = shl i64 %5, 32
  %11 = ashr exact i64 %sext, 32
  %12 = mul i64 %11, 86400000000
  br label %15

date2timestamp_opt_overflow.exit.i:               ; preds = %8
  %13 = icmp eq i64 %3, 9223372036854775807
  %14 = select i1 %13, i32 -1, i32 1
  br label %date_cmp_timestamp_internal.exit

15:                                               ; preds = %10, %7, %1
  %.010.i.ph.i = phi i64 [ -9223372036854775808, %1 ], [ %12, %10 ], [ 9223372036854775807, %7 ]
  %16 = tail call i32 @timestamp_cmp_internal(i64 noundef %.010.i.ph.i, i64 noundef %3) #16
  br label %date_cmp_timestamp_internal.exit

date_cmp_timestamp_internal.exit:                 ; preds = %date2timestamp_opt_overflow.exit.i, %15
  %.0.i = phi i32 [ %14, %date2timestamp_opt_overflow.exit.i ], [ %16, %15 ]
  %17 = sub i32 0, %.0.i
  %18 = sext i32 %17 to i64
  ret i64 %18
}